Certificate:
    Data:
        Version: 3 (0x2)
        Serial Number: 4564 (0x11d4)
        Signature Algorithm: sha1WithRSAEncryption
        Issuer: C=US, ST=NY, L=New York, O=Bloomberg LP, OU=CTO Office, CN=Bloomberg LP CA/emailAddress=open-tech@bloomberg.net
        Validity
            Not Before: Feb 20 06:00:00 2015 GMT
            Not After : Feb 24 06:00:00 2015 GMT
        Subject: C=US, ST=NY, L=New York, O=Bloomberg LP, OU=CTO Office, CN=stacshack_spring_2015_023/emailAddress=open-tech@bloomberg.net
        Subject Public Key Info:
            Public Key Algorithm: rsaEncryption
            RSA Public Key: (1024 bit)
                Modulus (1024 bit):
                    00:d8:78:aa:7d:e7:08:aa:57:02:ab:f3:56:1c:13:
                    06:d7:1c:de:58:c8:c6:e8:f3:ff:99:ab:05:1b:5f:
                    4f:a5:0b:6f:b6:50:ba:9e:dc:31:2f:38:14:3b:d8:
                    99:13:10:fd:f9:2b:49:22:9d:20:cc:78:9c:af:f3:
                    0f:d5:d1:c8:d2:97:09:6b:40:6c:ff:02:1c:bd:b5:
                    14:0c:dc:6b:bb:03:18:3e:42:b0:a7:1c:01:9a:8f:
                    2d:d2:05:82:7c:b2:f3:84:62:9a:34:a0:f9:54:d6:
                    af:aa:dd:38:45:ab:c3:01:17:e0:39:88:b4:3e:ba:
                    53:95:86:4f:41:69:22:6c:9b
                Exponent: 65537 (0x10001)
        X509v3 extensions:
            X509v3 Basic Constraints: 
                CA:FALSE
            Netscape Comment: 
                Easy-RSA Generated Certificate
            X509v3 Subject Key Identifier: 
                BE:B6:AA:5E:6C:9A:F1:B5:8C:25:12:6C:65:3D:5F:99:A3:E1:BB:AC
            X509v3 Authority Key Identifier: 
                keyid:F3:21:76:1F:DA:B5:E7:03:FC:ED:D7:71:B8:1C:55:2D:7E:65:5F:14
                DirName:/C=US/ST=NY/L=New York/O=Bloomberg LP/OU=CTO Office/CN=Bloomberg LP CA/emailAddress=open-tech@bloomberg.net
                serial:81:F3:7A:1C:BC:C6:E8:A2

            X509v3 Extended Key Usage: 
                TLS Web Client Authentication
            X509v3 Key Usage: 
                Digital Signature
    Signature Algorithm: sha1WithRSAEncryption
        7d:19:82:7b:39:3d:58:9e:1c:d1:df:c9:be:36:6b:7b:83:52:
        d9:c7:0e:32:f5:df:a2:0f:39:ff:93:38:3a:c4:50:98:7b:68:
        17:4d:65:11:1a:35:35:6b:48:45:6d:3e:2c:75:69:e0:67:69:
        50:12:4c:bf:62:a8:8c:6f:30:b4:4a:0e:2d:56:b4:3b:7f:08:
        46:6f:dc:04:9d:80:bf:6c:fd:40:94:9d:8d:d3:39:84:23:7a:
        30:c5:14:9b:ae:f4:e3:36:6a:a7:6f:11:92:8d:6e:42:16:14:
        12:80:87:05:ca:41:54:e4:44:29:07:6a:8f:32:b7:44:70:ef:
        6e:72
-----BEGIN CERTIFICATE-----
MIIEDTCCA3agAwIBAgICEdQwDQYJKoZIhvcNAQEFBQAwgZsxCzAJBgNVBAYTAlVT
MQswCQYDVQQIEwJOWTERMA8GA1UEBxMITmV3IFlvcmsxFTATBgNVBAoTDEJsb29t
YmVyZyBMUDETMBEGA1UECxMKQ1RPIE9mZmljZTEYMBYGA1UEAxMPQmxvb21iZXJn
IExQIENBMSYwJAYJKoZIhvcNAQkBFhdvcGVuLXRlY2hAYmxvb21iZXJnLm5ldDAe
Fw0xNTAyMjAwNjAwMDBaFw0xNTAyMjQwNjAwMDBaMIGlMQswCQYDVQQGEwJVUzEL
MAkGA1UECBMCTlkxETAPBgNVBAcTCE5ldyBZb3JrMRUwEwYDVQQKEwxCbG9vbWJl
cmcgTFAxEzARBgNVBAsTCkNUTyBPZmZpY2UxIjAgBgNVBAMUGXN0YWNzaGFja19z
cHJpbmdfMjAxNV8wMjMxJjAkBgkqhkiG9w0BCQEWF29wZW4tdGVjaEBibG9vbWJl
cmcubmV0MIGfMA0GCSqGSIb3DQEBAQUAA4GNADCBiQKBgQDYeKp95wiqVwKr81Yc
EwbXHN5YyMbo8/+ZqwUbX0+lC2+2ULqe3DEvOBQ72JkTEP35K0kinSDMeJyv8w/V
0cjSlwlrQGz/Ahy9tRQM3Gu7Axg+QrCnHAGajy3SBYJ8svOEYpo0oPlU1q+q3ThF
q8MBF+A5iLQ+ulOVhk9BaSJsmwIDAQABo4IBUjCCAU4wCQYDVR0TBAIwADAtBglg
hkgBhvhCAQ0EIBYeRWFzeS1SU0EgR2VuZXJhdGVkIENlcnRpZmljYXRlMB0GA1Ud
DgQWBBS+tqpebJrxtYwlEmxlPV+Zo+G7rDCB0AYDVR0jBIHIMIHFgBTzIXYf2rXn
A/zt13G4HFUtfmVfFKGBoaSBnjCBmzELMAkGA1UEBhMCVVMxCzAJBgNVBAgTAk5Z
MREwDwYDVQQHEwhOZXcgWW9yazEVMBMGA1UEChMMQmxvb21iZXJnIExQMRMwEQYD
VQQLEwpDVE8gT2ZmaWNlMRgwFgYDVQQDEw9CbG9vbWJlcmcgTFAgQ0ExJjAkBgkq
hkiG9w0BCQEWF29wZW4tdGVjaEBibG9vbWJlcmcubmV0ggkAgfN6HLzG6KIwEwYD
VR0lBAwwCgYIKwYBBQUHAwIwCwYDVR0PBAQDAgeAMA0GCSqGSIb3DQEBBQUAA4GB
AH0Zgns5PVieHNHfyb42a3uDUtnHDjL136IPOf+TODrEUJh7aBdNZREaNTVrSEVt
Pix1aeBnaVASTL9iqIxvMLRKDi1WtDt/CEZv3ASdgL9s/UCUnY3TOYQjejDFFJuu
9OM2aqdvEZKNbkIWFBKAhwXKQVTkRCkHao8yt0Rw725y
-----END CERTIFICATE-----
